target datalayout = "e-m:e-p270:32:32-p271:32:32-p272:64:64-i64:64-i128:128-f80:128-n8:16:32:64-S128"
target triple = "x86_64-pc-linux-gnu"

%"class.llvm::StringRef" = type { ptr, i64 }
%"class.clang::Selector" = type { %"class.llvm::PointerIntPair" }
%"class.llvm::PointerIntPair" = type { %"struct.llvm::detail::PunnedPointer" }
%"struct.llvm::detail::PunnedPointer" = type { [8 x i8] }
%"class.clang::SourceRange" = type { %"class.clang::SourceLocation", %"class.clang::SourceLocation" }
%"class.clang::SourceLocation" = type { i32 }
%"class.clang::CharSourceRange" = type <{ %"class.clang::SourceRange", i8, [3 x i8] }>

@.str.21 = private unnamed_addr constant [2 x i8] c"@\00", align 1

; Function Attrs: mustprogress nounwind uwtable
define linkonce_odr hidden noundef i64 @_ZNK4llvm6detail13PunnedPointerINS_12PointerUnionIJPKN5clang14IdentifierInfoEPNS3_20MultiKeywordSelectorEEEEE5asIntEv(ptr noundef nonnull align 8 dereferenceable(8) %0) #0 comdat align 2 {
  %2 = alloca ptr, align 8
  %3 = alloca i64, align 8
  store ptr %0, ptr %2, align 8
  %4 = load ptr, ptr %2, align 8
  store i64 0, ptr %3, align 8
  %5 = getelementptr inbounds nuw %"struct.llvm::detail::PunnedPointer", ptr %4, i32 0, i32 0
  %6 = getelementptr inbounds [8 x i8], ptr %5, i64 0, i64 0
  call void @llvm.memcpy.p0.p0.i64(ptr align 8 %3, ptr align 8 %6, i64 8, i1 false)
  %7 = load i64, ptr %3, align 8
  ret i64 %7
}

; Function Attrs: mustprogress nounwind uwtable
define linkonce_odr hidden void @_ZN5clang15CharSourceRangeC2ENS_11SourceRangeEb(ptr noundef nonnull align 4 dereferenceable(9) %0, i64 %1, i1 noundef zeroext %2) unnamed_addr #0 comdat align 2 {
  %4 = alloca %"class.clang::SourceRange", align 4
  %5 = alloca ptr, align 8
  %6 = alloca i8, align 1
  store i64 %1, ptr %4, align 4
  store ptr %0, ptr %5, align 8
  %7 = zext i1 %2 to i8
  store i8 %7, ptr %6, align 1
  %8 = load ptr, ptr %5, align 8
  %9 = getelementptr inbounds nuw %"class.clang::CharSourceRange", ptr %8, i32 0, i32 0
  call void @llvm.memcpy.p0.p0.i64(ptr align 4 %9, ptr align 4 %4, i64 8, i1 false)
  %10 = getelementptr inbounds nuw %"class.clang::CharSourceRange", ptr %8, i32 0, i32 1
  %11 = load i8, ptr %6, align 1
  %12 = trunc i8 %11 to i1
  %13 = zext i1 %12 to i8
  store i8 %13, ptr %10, align 4
  ret void
}

; Function Attrs: mustprogress nounwind uwtable
define linkonce_odr hidden noundef ptr @_ZNK4llvm14PointerIntPairINS_12PointerUnionIJPKN5clang14IdentifierInfoEPNS2_20MultiKeywordSelectorEEEELj2EjNS_21PointerLikeTypeTraitsIS8_EENS_18PointerIntPairInfoIS8_Lj2ESA_EEE14getOpaqueValueEv(ptr noundef nonnull align 8 dereferenceable(8) %0) #0 comdat align 2 {
  %2 = alloca ptr, align 8
  store ptr %0, ptr %2, align 8
  %3 = load ptr, ptr %2, align 8
  %4 = getelementptr inbounds nuw %"class.llvm::PointerIntPair", ptr %3, i32 0, i32 0
  %5 = call noundef i64 @_ZNK4llvm6detail13PunnedPointerINS_12PointerUnionIJPKN5clang14IdentifierInfoEPNS3_20MultiKeywordSelectorEEEEE5asIntEv(ptr noundef nonnull align 8 dereferenceable(8) %4)
  %6 = inttoptr i64 %5 to ptr
  ret ptr %6
}

; Function Attrs: mustprogress nounwind uwtable
define linkonce_odr hidden noundef i64 @_ZNSt11char_traitsIcE6lengthEPKc(ptr noundef %0) #0 comdat align 2 {
  %2 = alloca ptr, align 8
  store ptr %0, ptr %2, align 8
  %3 = load ptr, ptr %2, align 8
  %4 = call i64 @strlen(ptr noundef %3) #10
  ret i64 %4
}

; Function Attrs: mustprogress nounwind uwtable
define linkonce_odr hidden { i64, i8 } @_ZN5clang15CharSourceRange13getTokenRangeENS_11SourceRangeE(i64 %0) #0 comdat align 2 {
  %2 = alloca %"class.clang::CharSourceRange", align 4
  %3 = alloca %"class.clang::SourceRange", align 4
  %4 = alloca %"class.clang::SourceRange", align 4
  %5 = alloca { i64, i8 }, align 8
  store i64 %0, ptr %3, align 4
  call void @llvm.memcpy.p0.p0.i64(ptr align 4 %4, ptr align 4 %3, i64 8, i1 false)
  %6 = load i64, ptr %4, align 4
  call void @_ZN5clang15CharSourceRangeC2ENS_11SourceRangeEb(ptr noundef nonnull align 4 dereferenceable(9) %2, i64 %6, i1 noundef zeroext true)
  call void @llvm.memcpy.p0.p0.i64(ptr align 8 %5, ptr align 4 %2, i64 12, i1 false)
  %7 = load { i64, i8 }, ptr %5, align 8
  ret { i64, i8 } %7
}

; Function Attrs: mustprogress nounwind uwtable
define linkonce_odr hidden noundef zeroext i1 @_ZNK5clang8SelectoreqES0_(ptr noundef nonnull align 8 dereferenceable(8) %0, i64 %1) #0 comdat align 2 {
  %3 = alloca %"class.clang::Selector", align 8
  %4 = alloca ptr, align 8
  %5 = getelementptr inbounds nuw %"class.clang::Selector", ptr %3, i32 0, i32 0
  %6 = getelementptr inbounds nuw %"class.llvm::PointerIntPair", ptr %5, i32 0, i32 0
  %7 = getelementptr inbounds nuw %"struct.llvm::detail::PunnedPointer", ptr %6, i32 0, i32 0
  store i64 %1, ptr %7, align 8
  store ptr %0, ptr %4, align 8
  %8 = load ptr, ptr %4, align 8
  %9 = getelementptr inbounds nuw %"class.clang::Selector", ptr %8, i32 0, i32 0
  %10 = call noundef ptr @_ZNK4llvm14PointerIntPairINS_12PointerUnionIJPKN5clang14IdentifierInfoEPNS2_20MultiKeywordSelectorEEEELj2EjNS_21PointerLikeTypeTraitsIS8_EENS_18PointerIntPairInfoIS8_Lj2ESA_EEE14getOpaqueValueEv(ptr noundef nonnull align 8 dereferenceable(8) %9)
  %11 = getelementptr inbounds nuw %"class.clang::Selector", ptr %3, i32 0, i32 0
  %12 = call noundef ptr @_ZNK4llvm14PointerIntPairINS_12PointerUnionIJPKN5clang14IdentifierInfoEPNS2_20MultiKeywordSelectorEEEELj2EjNS_21PointerLikeTypeTraitsIS8_EENS_18PointerIntPairInfoIS8_Lj2ESA_EEE14getOpaqueValueEv(ptr noundef nonnull align 8 dereferenceable(8) %11)
  %13 = icmp eq ptr %10, %12
  ret i1 %13
}

; Function Attrs: mustprogress nounwind uwtable
define linkonce_odr hidden void @_ZN4llvm9StringRefC2EPKc(ptr noundef nonnull align 8 dereferenceable(16) %0, ptr noundef %1) unnamed_addr #0 comdat align 2 {
  %3 = alloca ptr, align 8
  %4 = alloca ptr, align 8
  store ptr %0, ptr %3, align 8
  store ptr %1, ptr %4, align 8
  %5 = load ptr, ptr %3, align 8
  %6 = getelementptr inbounds nuw %"class.llvm::StringRef", ptr %5, i32 0, i32 0
  %7 = load ptr, ptr %4, align 8
  store ptr %7, ptr %6, align 8
  %8 = getelementptr inbounds nuw %"class.llvm::StringRef", ptr %5, i32 0, i32 1
  %9 = load ptr, ptr %4, align 8
  %10 = icmp ne ptr %9, null
  br i1 %10, label %11, label %14

11:                                               ; preds = %2
  %12 = load ptr, ptr %4, align 8
  %13 = call noundef i64 @_ZNSt11char_traitsIcE6lengthEPKc(ptr noundef %12)
  br label %15

14:                                               ; preds = %2
  br label %15

15:                                               ; preds = %14, %11
  %16 = phi i64 [ %13, %11 ], [ 0, %14 ]
  store i64 %16, ptr %8, align 8
  ret void
}

; Function Attrs: mustprogress nounwind uwtable
define linkonce_odr hidden i32 @_ZNK5clang11SourceRange8getBeginEv(ptr noundef nonnull align 4 dereferenceable(8) %0) #0 comdat align 2 {
  %2 = alloca %"class.clang::SourceLocation", align 4
  %3 = alloca ptr, align 8
  store ptr %0, ptr %3, align 8
  %4 = load ptr, ptr %3, align 8
  %5 = getelementptr inbounds nuw %"class.clang::SourceRange", ptr %4, i32 0, i32 0
  call void @llvm.memcpy.p0.p0.i64(ptr align 4 %2, ptr align 4 %5, i64 4, i1 false)
  %6 = getelementptr inbounds nuw %"class.clang::SourceLocation", ptr %2, i32 0, i32 0
  %7 = load i32, ptr %6, align 4
  ret i32 %7
}

; Function Attrs: mustprogress nounwind uwtable
define linkonce_odr hidden noundef zeroext i1 @_ZN5clang4edit6Commit16replaceWithInnerENS_11SourceRangeES2_(ptr noundef nonnull align 8 dereferenceable(600) %0, i64 %1, i64 %2) #0 comdat align 2 {
  %4 = alloca %"class.clang::SourceRange", align 4
  %5 = alloca %"class.clang::SourceRange", align 4
  %6 = alloca ptr, align 8
  %7 = alloca %"class.clang::CharSourceRange", align 4
  %8 = alloca %"class.clang::SourceRange", align 4
  %9 = alloca { i64, i8 }, align 8
  %10 = alloca %"class.clang::CharSourceRange", align 4
  %11 = alloca %"class.clang::SourceRange", align 4
  %12 = alloca { i64, i8 }, align 8
  %13 = alloca { i64, i8 }, align 4
  %14 = alloca { i64, i8 }, align 4
  store i64 %1, ptr %4, align 4
  store i64 %2, ptr %5, align 4
  store ptr %0, ptr %6, align 8
  %15 = load ptr, ptr %6, align 8
  call void @llvm.memcpy.p0.p0.i64(ptr align 4 %8, ptr align 4 %4, i64 8, i1 false)
  %16 = load i64, ptr %8, align 4
  %17 = call { i64, i8 } @_ZN5clang15CharSourceRange13getTokenRangeENS_11SourceRangeE(i64 %16)
  store { i64, i8 } %17, ptr %9, align 8
  call void @llvm.memcpy.p0.p0.i64(ptr align 4 %7, ptr align 8 %9, i64 9, i1 false)
  call void @llvm.memcpy.p0.p0.i64(ptr align 4 %11, ptr align 4 %5, i64 8, i1 false)
  %18 = load i64, ptr %11, align 4
  %19 = call { i64, i8 } @_ZN5clang15CharSourceRange13getTokenRangeENS_11SourceRangeE(i64 %18)
  store { i64, i8 } %19, ptr %12, align 8
  call void @llvm.memcpy.p0.p0.i64(ptr align 4 %10, ptr align 8 %12, i64 9, i1 false)
  call void @llvm.memcpy.p0.p0.i64(ptr align 4 %13, ptr align 4 %7, i64 12, i1 false)
  %20 = getelementptr inbounds nuw { i64, i8 }, ptr %13, i32 0, i32 0
  %21 = load i64, ptr %20, align 4
  %22 = getelementptr inbounds nuw { i64, i8 }, ptr %13, i32 0, i32 1
  %23 = load i8, ptr %22, align 4
  call void @llvm.memcpy.p0.p0.i64(ptr align 4 %14, ptr align 4 %10, i64 12, i1 false)
  %24 = getelementptr inbounds nuw { i64, i8 }, ptr %14, i32 0, i32 0
  %25 = load i64, ptr %24, align 4
  %26 = getelementptr inbounds nuw { i64, i8 }, ptr %14, i32 0, i32 1
  %27 = load i8, ptr %26, align 4
  %28 = call noundef zeroext i1 @_ZN5clang4edit6Commit16replaceWithInnerENS_15CharSourceRangeES2_(ptr noundef nonnull align 8 dereferenceable(600) %15, i64 %21, i8 %23, i64 %25, i8 %27)
  ret i1 %28
}

; Function Attrs: mustprogress nounwind uwtable
define linkonce_odr hidden noundef zeroext i1 @_ZNK5clang5NSAPI25isNSNumberLiteralSelectorENS0_25NSNumberLiteralMethodKindENS_8SelectorE(ptr noundef nonnull align 8 dereferenceable(712) %0, i32 noundef %1, i64 %2) #0 comdat align 2 {
  %4 = alloca %"class.clang::Selector", align 8
  %5 = alloca ptr, align 8
  %6 = alloca i32, align 4
  %7 = alloca %"class.clang::Selector", align 8
  %8 = alloca %"class.clang::Selector", align 8
  %9 = getelementptr inbounds nuw %"class.clang::Selector", ptr %4, i32 0, i32 0
  %10 = getelementptr inbounds nuw %"class.llvm::PointerIntPair", ptr %9, i32 0, i32 0
  %11 = getelementptr inbounds nuw %"struct.llvm::detail::PunnedPointer", ptr %10, i32 0, i32 0
  store i64 %2, ptr %11, align 8
  store ptr %0, ptr %5, align 8
  store i32 %1, ptr %6, align 4
  %12 = load ptr, ptr %5, align 8
  %13 = load i32, ptr %6, align 4
  %14 = call i64 @_ZNK5clang5NSAPI26getNSNumberLiteralSelectorENS0_25NSNumberLiteralMethodKindEb(ptr noundef nonnull align 8 dereferenceable(712) %12, i32 noundef %13, i1 noundef zeroext false)
  %15 = getelementptr inbounds nuw %"class.clang::Selector", ptr %7, i32 0, i32 0
  %16 = getelementptr inbounds nuw %"class.llvm::PointerIntPair", ptr %15, i32 0, i32 0
  %17 = getelementptr inbounds nuw %"struct.llvm::detail::PunnedPointer", ptr %16, i32 0, i32 0
  store i64 %14, ptr %17, align 8
  %18 = getelementptr inbounds nuw %"class.clang::Selector", ptr %7, i32 0, i32 0
  %19 = getelementptr inbounds nuw %"class.llvm::PointerIntPair", ptr %18, i32 0, i32 0
  %20 = getelementptr inbounds nuw %"struct.llvm::detail::PunnedPointer", ptr %19, i32 0, i32 0
  %21 = load i64, ptr %20, align 8
  %22 = call noundef zeroext i1 @_ZNK5clang8SelectoreqES0_(ptr noundef nonnull align 8 dereferenceable(8) %4, i64 %21)
  br i1 %22, label %34, label %23

23:                                               ; preds = %3
  %24 = load i32, ptr %6, align 4
  %25 = call i64 @_ZNK5clang5NSAPI26getNSNumberLiteralSelectorENS0_25NSNumberLiteralMethodKindEb(ptr noundef nonnull align 8 dereferenceable(712) %12, i32 noundef %24, i1 noundef zeroext true)
  %26 = getelementptr inbounds nuw %"class.clang::Selector", ptr %8, i32 0, i32 0
  %27 = getelementptr inbounds nuw %"class.llvm::PointerIntPair", ptr %26, i32 0, i32 0
  %28 = getelementptr inbounds nuw %"struct.llvm::detail::PunnedPointer", ptr %27, i32 0, i32 0
  store i64 %25, ptr %28, align 8
  %29 = getelementptr inbounds nuw %"class.clang::Selector", ptr %8, i32 0, i32 0
  %30 = getelementptr inbounds nuw %"class.llvm::PointerIntPair", ptr %29, i32 0, i32 0
  %31 = getelementptr inbounds nuw %"struct.llvm::detail::PunnedPointer", ptr %30, i32 0, i32 0
  %32 = load i64, ptr %31, align 8
  %33 = call noundef zeroext i1 @_ZNK5clang8SelectoreqES0_(ptr noundef nonnull align 8 dereferenceable(8) %4, i64 %32)
  br label %34

34:                                               ; preds = %23, %3
  %35 = phi i1 [ true, %3 ], [ %33, %23 ]
  ret i1 %35
}

; Function Attrs: mustprogress nounwind uwtable
define internal noundef zeroext i1 @_ZL20rewriteToBoolLiteralPKN5clang15ObjCMessageExprEPKNS_4ExprERKNS_5NSAPIERNS_4edit6CommitE(ptr noundef %0, ptr noundef %1, ptr noundef nonnull align 8 dereferenceable(712) %2, ptr noundef nonnull align 8 dereferenceable(600) %3) #0 {
  %5 = alloca i1, align 1
  %6 = alloca ptr, align 8
  %7 = alloca ptr, align 8
  %8 = alloca ptr, align 8
  %9 = alloca ptr, align 8
  %10 = alloca %"class.clang::Selector", align 8
  %11 = alloca %"class.clang::SourceRange", align 4
  %12 = alloca %"class.clang::SourceRange", align 4
  %13 = alloca %"class.clang::SourceRange", align 4
  %14 = alloca %"class.clang::SourceLocation", align 4
  %15 = alloca %"class.llvm::StringRef", align 8
  store ptr %0, ptr %6, align 8
  store ptr %1, ptr %7, align 8
  store ptr %2, ptr %8, align 8
  store ptr %3, ptr %9, align 8
  %16 = load ptr, ptr %8, align 8
  %17 = load ptr, ptr %6, align 8
  %18 = call i64 @_ZNK5clang15ObjCMessageExpr11getSelectorEv(ptr noundef nonnull align 8 dereferenceable(40) %17)
  %19 = getelementptr inbounds nuw %"class.clang::Selector", ptr %10, i32 0, i32 0
  %20 = getelementptr inbounds nuw %"class.llvm::PointerIntPair", ptr %19, i32 0, i32 0
  %21 = getelementptr inbounds nuw %"struct.llvm::detail::PunnedPointer", ptr %20, i32 0, i32 0
  store i64 %18, ptr %21, align 8
  %22 = getelementptr inbounds nuw %"class.clang::Selector", ptr %10, i32 0, i32 0
  %23 = getelementptr inbounds nuw %"class.llvm::PointerIntPair", ptr %22, i32 0, i32 0
  %24 = getelementptr inbounds nuw %"struct.llvm::detail::PunnedPointer", ptr %23, i32 0, i32 0
  %25 = load i64, ptr %24, align 8
  %26 = call noundef zeroext i1 @_ZNK5clang5NSAPI25isNSNumberLiteralSelectorENS0_25NSNumberLiteralMethodKindENS_8SelectorE(ptr noundef nonnull align 8 dereferenceable(712) %16, i32 noundef 12, i64 %25)
  br i1 %26, label %27, label %46

27:                                               ; preds = %4
  %28 = load ptr, ptr %7, align 8
  %29 = call i64 @_ZNK5clang4Stmt14getSourceRangeEv(ptr noundef nonnull align 8 dereferenceable(8) %28) #9
  store i64 %29, ptr %11, align 4
  %30 = load ptr, ptr %9, align 8
  %31 = load ptr, ptr %6, align 8
  %32 = call i64 @_ZNK5clang4Stmt14getSourceRangeEv(ptr noundef nonnull align 8 dereferenceable(8) %31) #9
  store i64 %32, ptr %12, align 4
  call void @llvm.memcpy.p0.p0.i64(ptr align 4 %13, ptr align 4 %11, i64 8, i1 false)
  %33 = load i64, ptr %12, align 4
  %34 = load i64, ptr %13, align 4
  %35 = call noundef zeroext i1 @_ZN5clang4edit6Commit16replaceWithInnerENS_11SourceRangeES2_(ptr noundef nonnull align 8 dereferenceable(600) %30, i64 %33, i64 %34)
  %36 = load ptr, ptr %9, align 8
  %37 = call i32 @_ZNK5clang11SourceRange8getBeginEv(ptr noundef nonnull align 4 dereferenceable(8) %11)
  %38 = getelementptr inbounds nuw %"class.clang::SourceLocation", ptr %14, i32 0, i32 0
  store i32 %37, ptr %38, align 4
  call void @_ZN4llvm9StringRefC2EPKc(ptr noundef nonnull align 8 dereferenceable(16) %15, ptr noundef @.str.21)
  %39 = getelementptr inbounds nuw %"class.clang::SourceLocation", ptr %14, i32 0, i32 0
  %40 = load i32, ptr %39, align 4
  %41 = getelementptr inbounds nuw { ptr, i64 }, ptr %15, i32 0, i32 0
  %42 = load ptr, ptr %41, align 8
  %43 = getelementptr inbounds nuw { ptr, i64 }, ptr %15, i32 0, i32 1
  %44 = load i64, ptr %43, align 8
  %45 = call noundef zeroext i1 @_ZN5clang4edit6Commit6insertENS_14SourceLocationEN4llvm9StringRefEbb(ptr noundef nonnull align 8 dereferenceable(600) %36, i32 %40, ptr %42, i64 %44, i1 noundef zeroext false, i1 noundef zeroext false)
  store i1 true, ptr %5, align 1
  br label %51

46:                                               ; preds = %4
  %47 = load ptr, ptr %6, align 8
  %48 = load ptr, ptr %8, align 8
  %49 = load ptr, ptr %9, align 8
  %50 = call noundef zeroext i1 @_ZL31rewriteToNumericBoxedExpressionPKN5clang15ObjCMessageExprERKNS_5NSAPIERNS_4edit6CommitE(ptr noundef %47, ptr noundef nonnull align 8 dereferenceable(712) %48, ptr noundef nonnull align 8 dereferenceable(600) %49)
  store i1 %50, ptr %5, align 1
  br label %51

51:                                               ; preds = %46, %27
  %52 = load i1, ptr %5, align 1
  ret i1 %52
}