; Function Attrs: mustprogress nounwind uwtable
define internal fastcc noundef zeroext i1 @_ZL20rewriteToBoolLiteralPKN5clang15ObjCMessageExprEPKNS_4ExprERKNS_5NSAPIERNS_4edit6CommitE(ptr noundef nonnull %0, ptr noundef %1, ptr noundef nonnull align 8 dereferenceable(712) %2, ptr noundef nonnull align 8 dereferenceable(600) %3) unnamed_addr #0 {
  %5 = tail call i64 @_ZNK5clang15ObjCMessageExpr11getSelectorEv(ptr noundef nonnull align 8 dereferenceable(40) %0) #14
  %6 = tail call i64 @_ZNK5clang5NSAPI26getNSNumberLiteralSelectorENS0_25NSNumberLiteralMethodKindEb(ptr noundef nonnull align 8 dereferenceable(712) %2, i32 noundef 12, i1 noundef zeroext false) #14
  %7 = inttoptr i64 %5 to ptr
  %8 = inttoptr i64 %6 to ptr
  %9 = icmp eq ptr %7, %8
  br i1 %9, label %_ZNK5clang5NSAPI25isNSNumberLiteralSelectorENS0_25NSNumberLiteralMethodKindENS_8SelectorE.exit.thread, label %_ZNK5clang5NSAPI25isNSNumberLiteralSelectorENS0_25NSNumberLiteralMethodKindENS_8SelectorE.exit

_ZNK5clang5NSAPI25isNSNumberLiteralSelectorENS0_25NSNumberLiteralMethodKindENS_8SelectorE.exit: ; preds = %4
  %10 = tail call i64 @_ZNK5clang5NSAPI26getNSNumberLiteralSelectorENS0_25NSNumberLiteralMethodKindEb(ptr noundef nonnull align 8 dereferenceable(712) %2, i32 noundef 12, i1 noundef zeroext true) #14
  %11 = inttoptr i64 %10 to ptr
  %12 = icmp eq ptr %7, %11
  br i1 %12, label %_ZNK5clang5NSAPI25isNSNumberLiteralSelectorENS0_25NSNumberLiteralMethodKindENS_8SelectorE.exit.thread, label %17

_ZNK5clang5NSAPI25isNSNumberLiteralSelectorENS0_25NSNumberLiteralMethodKindENS_8SelectorE.exit.thread: ; preds = %4, %_ZNK5clang5NSAPI25isNSNumberLiteralSelectorENS0_25NSNumberLiteralMethodKindENS_8SelectorE.exit
  %13 = tail call i64 @_ZNK5clang4Stmt14getSourceRangeEv(ptr noundef nonnull align 8 dereferenceable(8) %1) #15
  %.sroa.013.0.extract.trunc = trunc i64 %13 to i32
  %14 = tail call i64 @_ZNK5clang4Stmt14getSourceRangeEv(ptr noundef nonnull align 8 dereferenceable(8) %0) #15
  %15 = tail call noundef zeroext i1 @_ZN5clang4edit6Commit16replaceWithInnerENS_15CharSourceRangeES2_(ptr noundef nonnull align 8 dereferenceable(600) %3, i64 %14, i8 1, i64 %13, i8 1) #14
  %16 = tail call noundef zeroext i1 @_ZN5clang4edit6Commit6insertENS_14SourceLocationEN4llvm9StringRefEbb(ptr noundef nonnull align 8 dereferenceable(600) %3, i32 %.sroa.013.0.extract.trunc, ptr nonnull @.str.21, i64 1, i1 noundef zeroext false, i1 noundef zeroext false) #14
  br label %19

17:                                               ; preds = %_ZNK5clang5NSAPI25isNSNumberLiteralSelectorENS0_25NSNumberLiteralMethodKindENS_8SelectorE.exit
  %18 = tail call fastcc noundef zeroext i1 @_ZL31rewriteToNumericBoxedExpressionPKN5clang15ObjCMessageExprERKNS_5NSAPIERNS_4edit6CommitE(ptr noundef nonnull %0, ptr noundef nonnull align 8 dereferenceable(712) %2, ptr noundef nonnull align 8 dereferenceable(600) %3)
  br label %19

19:                                               ; preds = %17, %_ZNK5clang5NSAPI25isNSNumberLiteralSelectorENS0_25NSNumberLiteralMethodKindENS_8SelectorE.exit.thread
  %.0 = phi i1 [ true, %_ZNK5clang5NSAPI25isNSNumberLiteralSelectorENS0_25NSNumberLiteralMethodKindENS_8SelectorE.exit.thread ], [ %18, %17 ]
  ret i1 %.0
}